target datalayout = "e-m:e-p270:32:32-p271:32:32-p272:64:64-i64:64-i128:128-f80:128-n8:16:32:64-S128"
target triple = "x86_64-pc-linux-gnu"

%struct.evp_cipher_ctx_st = type { ptr, ptr, i32, i32, [16 x i8], [16 x i8], [32 x i8], i32, ptr, i32, i32, i64, ptr, i32, i32, [32 x i8], i64, ptr, ptr }
%struct.evp_cipher_st = type { i32, i32, i32, i32, i64, i32, ptr, ptr, ptr, i32, ptr, ptr, ptr, ptr, i32, ptr, ptr, ptr, %struct.CRYPTO_REF_COUNT, ptr, ptr, ptr, ptr, ptr, ptr, ptr, ptr, ptr, ptr, ptr, ptr, ptr, ptr, ptr, ptr, ptr, ptr, ptr, ptr }
%struct.CRYPTO_REF_COUNT = type { i32 }

@.str = private unnamed_addr constant [32 x i8] c"../openssl/crypto/evp/evp_enc.c\00", align 1
@__func__.EVP_CipherPipelineDecryptInit = private unnamed_addr constant [30 x i8] c"EVP_CipherPipelineDecryptInit\00", align 1

; Function Attrs: nounwind uwtable
define i32 @EVP_CipherPipelineDecryptInit(ptr noundef %0, ptr noundef %1, ptr noundef %2, i64 noundef %3, i64 noundef %4, ptr noundef %5, i64 noundef %6) #0 {
  %8 = alloca i32, align 4
  %9 = alloca ptr, align 8
  %10 = alloca ptr, align 8
  %11 = alloca ptr, align 8
  %12 = alloca i64, align 8
  %13 = alloca i64, align 8
  %14 = alloca ptr, align 8
  %15 = alloca i64, align 8
  store ptr %0, ptr %9, align 8, !tbaa !3
  store ptr %1, ptr %10, align 8, !tbaa !27
  store ptr %2, ptr %11, align 8, !tbaa !32
  store i64 %3, ptr %12, align 8, !tbaa !33
  store i64 %4, ptr %13, align 8, !tbaa !33
  store ptr %5, ptr %14, align 8, !tbaa !61
  store i64 %6, ptr %15, align 8, !tbaa !33
  %16 = load i64, ptr %13, align 8, !tbaa !33
  %17 = icmp ugt i64 %16, 32
  br i1 %17, label %18, label %19

18:                                               ; preds = %7
  call void @ERR_new()
  call void @ERR_set_debug(ptr noundef @.str, i32 noundef 685, ptr noundef @__func__.EVP_CipherPipelineDecryptInit)
  call void (i32, i32, ptr, ...) @ERR_set_error(i32 noundef 6, i32 noundef 231, ptr noundef null)
  store i32 0, ptr %8, align 4
  br label %51

19:                                               ; preds = %7
  %20 = load i64, ptr %13, align 8, !tbaa !33
  %21 = load ptr, ptr %9, align 8, !tbaa !3
  %22 = getelementptr inbounds nuw %struct.evp_cipher_ctx_st, ptr %21, i32 0, i32 16
  store i64 %20, ptr %22, align 8, !tbaa !63
  %23 = load ptr, ptr %9, align 8, !tbaa !3
  %24 = load ptr, ptr %10, align 8, !tbaa !27
  %25 = call i32 @evp_cipher_init_internal(ptr noundef %23, ptr noundef %24, ptr noundef null, ptr noundef null, ptr noundef null, i32 noundef 0, i8 noundef zeroext 1, ptr noundef null)
  %26 = icmp ne i32 %25, 0
  br i1 %26, label %28, label %27

27:                                               ; preds = %19
  store i32 0, ptr %8, align 4
  br label %51

28:                                               ; preds = %19
  %29 = load ptr, ptr %9, align 8, !tbaa !3
  %30 = getelementptr inbounds nuw %struct.evp_cipher_ctx_st, ptr %29, i32 0, i32 0
  %31 = load ptr, ptr %30, align 8, !tbaa !8
  %32 = getelementptr inbounds nuw %struct.evp_cipher_st, ptr %31, i32 0, i32 26
  %33 = load ptr, ptr %32, align 8, !tbaa !65
  %34 = icmp eq ptr %33, null
  br i1 %34, label %35, label %36

35:                                               ; preds = %28
  call void @ERR_new()
  call void @ERR_set_debug(ptr noundef @.str, i32 noundef 696, ptr noundef @__func__.EVP_CipherPipelineDecryptInit)
  call void (i32, i32, ptr, ...) @ERR_set_error(i32 noundef 6, i32 noundef 134, ptr noundef null)
  store i32 0, ptr %8, align 4
  br label %51

36:                                               ; preds = %28
  %37 = load ptr, ptr %9, align 8, !tbaa !3
  %38 = getelementptr inbounds nuw %struct.evp_cipher_ctx_st, ptr %37, i32 0, i32 0
  %39 = load ptr, ptr %38, align 8, !tbaa !8
  %40 = getelementptr inbounds nuw %struct.evp_cipher_st, ptr %39, i32 0, i32 26
  %41 = load ptr, ptr %40, align 8, !tbaa !65
  %42 = load ptr, ptr %9, align 8, !tbaa !3
  %43 = getelementptr inbounds nuw %struct.evp_cipher_ctx_st, ptr %42, i32 0, i32 17
  %44 = load ptr, ptr %43, align 8, !tbaa !19
  %45 = load ptr, ptr %11, align 8, !tbaa !32
  %46 = load i64, ptr %12, align 8, !tbaa !33
  %47 = load i64, ptr %13, align 8, !tbaa !33
  %48 = load ptr, ptr %14, align 8, !tbaa !61
  %49 = load i64, ptr %15, align 8, !tbaa !33
  %50 = call i32 %41(ptr noundef %44, ptr noundef %45, i64 noundef %46, i64 noundef %47, ptr noundef %48, i64 noundef %49, ptr noundef null)
  store i32 %50, ptr %8, align 4
  br label %51

51:                                               ; preds = %36, %35, %27, %18
  %52 = load i32, ptr %8, align 4
  ret i32 %52
}