; Function Attrs: nounwind uwtable
define i32 @EVP_CipherPipelineDecryptInit(ptr noundef %0, ptr noundef %1, ptr noundef %2, i64 noundef %3, i64 noundef %4, ptr noundef %5, i64 noundef %6) local_unnamed_addr #0 {
  %8 = icmp ugt i64 %4, 32
  br i1 %8, label %9, label %10

9:                                                ; preds = %7
  tail call void @ERR_new() #10
  tail call void @ERR_set_debug(ptr noundef nonnull @.str, i32 noundef 685, ptr noundef nonnull @__func__.EVP_CipherPipelineDecryptInit) #10
  tail call void (i32, i32, ptr, ...) @ERR_set_error(i32 noundef 6, i32 noundef 231, ptr noundef null) #10
  br label %23

10:                                               ; preds = %7
  %11 = getelementptr inbounds nuw i8, ptr %0, i64 168
  store i64 %4, ptr %11, align 8, !tbaa !60
  %12 = tail call fastcc i32 @evp_cipher_init_internal(ptr noundef %0, ptr noundef %1, ptr noundef null, ptr noundef null, ptr noundef null, i32 noundef 0, i8 noundef zeroext 1, ptr noundef null)
  %.not = icmp eq i32 %12, 0
  br i1 %.not, label %23, label %13

13:                                               ; preds = %10
  %14 = load ptr, ptr %0, align 8, !tbaa !3
  %15 = getelementptr inbounds nuw i8, ptr %14, i64 192
  %16 = load ptr, ptr %15, align 8, !tbaa !47
  %17 = icmp eq ptr %16, null
  br i1 %17, label %18, label %19

18:                                               ; preds = %13
  tail call void @ERR_new() #10
  tail call void @ERR_set_debug(ptr noundef nonnull @.str, i32 noundef 696, ptr noundef nonnull @__func__.EVP_CipherPipelineDecryptInit) #10
  tail call void (i32, i32, ptr, ...) @ERR_set_error(i32 noundef 6, i32 noundef 134, ptr noundef null) #10
  br label %23

19:                                               ; preds = %13
  %20 = getelementptr inbounds nuw i8, ptr %0, i64 176
  %21 = load ptr, ptr %20, align 8, !tbaa !17
  %22 = tail call i32 %16(ptr noundef %21, ptr noundef %2, i64 noundef %3, i64 noundef %4, ptr noundef %5, i64 noundef %6, ptr noundef null) #10
  br label %23

23:                                               ; preds = %10, %19, %18, %9
  %.0 = phi i32 [ 0, %9 ], [ 0, %18 ], [ %22, %19 ], [ 0, %10 ]
  ret i32 %.0
}